target datalayout = "e-m:e-p270:32:32-p271:32:32-p272:64:64-i64:64-i128:128-f80:128-n8:16:32:64-S128"
target triple = "x86_64-pc-linux-gnu"

%struct.mbedtls_pem_context = type { ptr, i64, ptr }

@.str = private unnamed_addr constant [28 x i8] c"-----BEGIN CERTIFICATE-----\00", align 1
@.str.1 = private unnamed_addr constant [26 x i8] c"-----END CERTIFICATE-----\00", align 1

; Function Attrs: nounwind uwtable
define hidden i32 @mbedtls_x509_crt_parse_der(ptr noundef %0, ptr noundef %1, i64 noundef %2) #0 {
  %4 = alloca ptr, align 8
  %5 = alloca ptr, align 8
  %6 = alloca i64, align 8
  store ptr %0, ptr %4, align 8, !tbaa !3
  store ptr %1, ptr %5, align 8, !tbaa !8
  store i64 %2, ptr %6, align 8, !tbaa !10
  %7 = load ptr, ptr %4, align 8, !tbaa !3
  %8 = load ptr, ptr %5, align 8, !tbaa !8
  %9 = load i64, ptr %6, align 8, !tbaa !10
  %10 = call i32 @mbedtls_x509_crt_parse_der_internal(ptr noundef %7, ptr noundef %8, i64 noundef %9, i32 noundef 1, ptr noundef null, ptr noundef null)
  ret i32 %10
}

; Function Attrs: nounwind uwtable
define hidden i32 @mbedtls_x509_crt_parse(ptr noundef %0, ptr noundef %1, i64 noundef %2) #0 {
  %4 = alloca i32, align 4
  %5 = alloca ptr, align 8
  %6 = alloca ptr, align 8
  %7 = alloca i64, align 8
  %8 = alloca i32, align 4
  %9 = alloca i32, align 4
  %10 = alloca i32, align 4
  %11 = alloca i32, align 4
  %12 = alloca i32, align 4
  %13 = alloca i32, align 4
  %14 = alloca %struct.mbedtls_pem_context, align 8
  %15 = alloca i64, align 8
  store ptr %0, ptr %5, align 8, !tbaa !3
  store ptr %1, ptr %6, align 8, !tbaa !8
  store i64 %2, ptr %7, align 8, !tbaa !10
  call void @llvm.lifetime.start.p0(i64 4, ptr %8) #10
  store i32 0, ptr %8, align 4, !tbaa !12
  call void @llvm.lifetime.start.p0(i64 4, ptr %9) #10
  store i32 0, ptr %9, align 4, !tbaa !12
  call void @llvm.lifetime.start.p0(i64 4, ptr %10) #10
  store i32 0, ptr %10, align 4, !tbaa !12
  call void @llvm.lifetime.start.p0(i64 4, ptr %11) #10
  store i32 1, ptr %11, align 4, !tbaa !12
  %16 = load ptr, ptr %5, align 8, !tbaa !3
  %17 = icmp eq ptr %16, null
  br i1 %17, label %21, label %18

18:                                               ; preds = %3
  %19 = load ptr, ptr %6, align 8, !tbaa !8
  %20 = icmp eq ptr %19, null
  br i1 %20, label %21, label %22

21:                                               ; preds = %18, %3
  store i32 -10240, ptr %4, align 4
  store i32 1, ptr %12, align 4
  br label %129

22:                                               ; preds = %18
  %23 = load i64, ptr %7, align 8, !tbaa !10
  %24 = icmp ne i64 %23, 0
  br i1 %24, label %25, label %38

25:                                               ; preds = %22
  %26 = load ptr, ptr %6, align 8, !tbaa !8
  %27 = load i64, ptr %7, align 8, !tbaa !10
  %28 = sub i64 %27, 1
  %29 = getelementptr inbounds nuw i8, ptr %26, i64 %28
  %30 = load i8, ptr %29, align 1, !tbaa !29
  %31 = zext i8 %30 to i32
  %32 = icmp eq i32 %31, 0
  br i1 %32, label %33, label %38

33:                                               ; preds = %25
  %34 = load ptr, ptr %6, align 8, !tbaa !8
  %35 = call ptr @strstr(ptr noundef %34, ptr noundef @.str) #12
  %36 = icmp ne ptr %35, null
  br i1 %36, label %37, label %38

37:                                               ; preds = %33
  store i32 2, ptr %11, align 4, !tbaa !12
  br label %38

38:                                               ; preds = %37, %33, %25, %22
  %39 = load i32, ptr %11, align 4, !tbaa !12
  %40 = icmp eq i32 %39, 1
  br i1 %40, label %41, label %46

41:                                               ; preds = %38
  %42 = load ptr, ptr %5, align 8, !tbaa !3
  %43 = load ptr, ptr %6, align 8, !tbaa !8
  %44 = load i64, ptr %7, align 8, !tbaa !10
  %45 = call i32 @mbedtls_x509_crt_parse_der(ptr noundef %42, ptr noundef %43, i64 noundef %44)
  store i32 %45, ptr %4, align 4
  store i32 1, ptr %12, align 4
  br label %129

46:                                               ; preds = %38
  %47 = load i32, ptr %11, align 4, !tbaa !12
  %48 = icmp eq i32 %47, 2
  br i1 %48, label %49, label %118

49:                                               ; preds = %46
  call void @llvm.lifetime.start.p0(i64 4, ptr %13) #10
  store i32 -110, ptr %13, align 4, !tbaa !12
  call void @llvm.lifetime.start.p0(i64 24, ptr %14) #10
  br label %50

50:                                               ; preds = %113, %111, %49
  %51 = load i64, ptr %7, align 8, !tbaa !10
  %52 = icmp ugt i64 %51, 1
  br i1 %52, label %53, label %114

53:                                               ; preds = %50
  call void @llvm.lifetime.start.p0(i64 8, ptr %15) #10
  call void @mbedtls_pem_init(ptr noundef %14)
  %54 = load ptr, ptr %6, align 8, !tbaa !8
  %55 = call i32 @mbedtls_pem_read_buffer(ptr noundef %14, ptr noundef @.str, ptr noundef @.str.1, ptr noundef %54, ptr noundef null, i64 noundef 0, ptr noundef %15)
  store i32 %55, ptr %13, align 4, !tbaa !12
  %56 = load i32, ptr %13, align 4, !tbaa !12
  %57 = icmp eq i32 %56, 0
  br i1 %57, label %58, label %65

58:                                               ; preds = %53
  %59 = load i64, ptr %15, align 8, !tbaa !10
  %60 = load i64, ptr %7, align 8, !tbaa !10
  %61 = sub i64 %60, %59
  store i64 %61, ptr %7, align 8, !tbaa !10
  %62 = load i64, ptr %15, align 8, !tbaa !10
  %63 = load ptr, ptr %6, align 8, !tbaa !8
  %64 = getelementptr inbounds nuw i8, ptr %63, i64 %62
  store ptr %64, ptr %6, align 8, !tbaa !8
  br label %88

65:                                               ; preds = %53
  %66 = load i32, ptr %13, align 4, !tbaa !12
  %67 = icmp eq i32 %66, -5248
  br i1 %67, label %68, label %70

68:                                               ; preds = %65
  %69 = load i32, ptr %13, align 4, !tbaa !12
  store i32 %69, ptr %4, align 4
  store i32 1, ptr %12, align 4
  br label %111

70:                                               ; preds = %65
  %71 = load i32, ptr %13, align 4, !tbaa !12
  %72 = icmp ne i32 %71, -4224
  br i1 %72, label %73, label %87

73:                                               ; preds = %70
  call void @mbedtls_pem_free(ptr noundef %14)
  %74 = load i64, ptr %15, align 8, !tbaa !10
  %75 = load i64, ptr %7, align 8, !tbaa !10
  %76 = sub i64 %75, %74
  store i64 %76, ptr %7, align 8, !tbaa !10
  %77 = load i64, ptr %15, align 8, !tbaa !10
  %78 = load ptr, ptr %6, align 8, !tbaa !8
  %79 = getelementptr inbounds nuw i8, ptr %78, i64 %77
  store ptr %79, ptr %6, align 8, !tbaa !8
  %80 = load i32, ptr %9, align 4, !tbaa !12
  %81 = icmp eq i32 %80, 0
  br i1 %81, label %82, label %84

82:                                               ; preds = %73
  %83 = load i32, ptr %13, align 4, !tbaa !12
  store i32 %83, ptr %9, align 4, !tbaa !12
  br label %84

84:                                               ; preds = %82, %73
  %85 = load i32, ptr %10, align 4, !tbaa !12
  %86 = add nsw i32 %85, 1
  store i32 %86, ptr %10, align 4, !tbaa !12
  store i32 2, ptr %12, align 4
  br label %111, !llvm.loop !30

87:                                               ; preds = %70
  store i32 3, ptr %12, align 4
  br label %111

88:                                               ; preds = %58
  %89 = load ptr, ptr %5, align 8, !tbaa !3
  %90 = getelementptr inbounds nuw %struct.mbedtls_pem_context, ptr %14, i32 0, i32 0
  %91 = load ptr, ptr %90, align 8, !tbaa !31
  %92 = getelementptr inbounds nuw %struct.mbedtls_pem_context, ptr %14, i32 0, i32 1
  %93 = load i64, ptr %92, align 8, !tbaa !33
  %94 = call i32 @mbedtls_x509_crt_parse_der(ptr noundef %89, ptr noundef %91, i64 noundef %93)
  store i32 %94, ptr %13, align 4, !tbaa !12
  call void @mbedtls_pem_free(ptr noundef %14)
  %95 = load i32, ptr %13, align 4, !tbaa !12
  %96 = icmp ne i32 %95, 0
  br i1 %96, label %97, label %110

97:                                               ; preds = %88
  %98 = load i32, ptr %13, align 4, !tbaa !12
  %99 = icmp eq i32 %98, -10368
  br i1 %99, label %100, label %102

100:                                              ; preds = %97
  %101 = load i32, ptr %13, align 4, !tbaa !12
  store i32 %101, ptr %4, align 4
  store i32 1, ptr %12, align 4
  br label %111

102:                                              ; preds = %97
  %103 = load i32, ptr %9, align 4, !tbaa !12
  %104 = icmp eq i32 %103, 0
  br i1 %104, label %105, label %107

105:                                              ; preds = %102
  %106 = load i32, ptr %13, align 4, !tbaa !12
  store i32 %106, ptr %9, align 4, !tbaa !12
  br label %107

107:                                              ; preds = %105, %102
  %108 = load i32, ptr %10, align 4, !tbaa !12
  %109 = add nsw i32 %108, 1
  store i32 %109, ptr %10, align 4, !tbaa !12
  store i32 2, ptr %12, align 4
  br label %111, !llvm.loop !30

110:                                              ; preds = %88
  store i32 1, ptr %8, align 4, !tbaa !12
  store i32 0, ptr %12, align 4
  br label %111

111:                                              ; preds = %110, %107, %100, %87, %84, %68
  call void @llvm.lifetime.end.p0(i64 8, ptr %15) #10
  %112 = load i32, ptr %12, align 4
  switch i32 %112, label %115 [
    i32 0, label %113
    i32 2, label %50
    i32 3, label %114
  ]

113:                                              ; preds = %111
  br label %50, !llvm.loop !30

114:                                              ; preds = %111, %50
  store i32 0, ptr %12, align 4
  br label %115

115:                                              ; preds = %114, %111
  call void @llvm.lifetime.end.p0(i64 24, ptr %14) #10
  call void @llvm.lifetime.end.p0(i64 4, ptr %13) #10
  %116 = load i32, ptr %12, align 4
  switch i32 %116, label %129 [
    i32 0, label %117
  ]

117:                                              ; preds = %115
  br label %118

118:                                              ; preds = %117, %46
  %119 = load i32, ptr %8, align 4, !tbaa !12
  %120 = icmp ne i32 %119, 0
  br i1 %120, label %121, label %123

121:                                              ; preds = %118
  %122 = load i32, ptr %10, align 4, !tbaa !12
  store i32 %122, ptr %4, align 4
  store i32 1, ptr %12, align 4
  br label %129

123:                                              ; preds = %118
  %124 = load i32, ptr %9, align 4, !tbaa !12
  %125 = icmp ne i32 %124, 0
  br i1 %125, label %126, label %128

126:                                              ; preds = %123
  %127 = load i32, ptr %9, align 4, !tbaa !12
  store i32 %127, ptr %4, align 4
  store i32 1, ptr %12, align 4
  br label %129

128:                                              ; preds = %123
  store i32 -10112, ptr %4, align 4
  store i32 1, ptr %12, align 4
  br label %129

129:                                              ; preds = %128, %126, %121, %115, %41, %21
  call void @llvm.lifetime.end.p0(i64 4, ptr %11) #10
  call void @llvm.lifetime.end.p0(i64 4, ptr %10) #10
  call void @llvm.lifetime.end.p0(i64 4, ptr %9) #10
  call void @llvm.lifetime.end.p0(i64 4, ptr %8) #10
  %130 = load i32, ptr %4, align 4
  ret i32 %130
}