; Function Attrs: nounwind uwtable
define hidden i32 @mbedtls_x509_crt_parse(ptr noundef %0, ptr noundef %1, i64 noundef %2) local_unnamed_addr #0 {
  %4 = alloca %struct.mbedtls_pem_context, align 8
  %5 = alloca i64, align 8
  %6 = icmp eq ptr %0, null
  %7 = icmp eq ptr %1, null
  %or.cond = or i1 %6, %7
  br i1 %or.cond, label %39, label %8

8:                                                ; preds = %3
  %.not = icmp eq i64 %2, 0
  br i1 %.not, label %.critedge, label %9

9:                                                ; preds = %8
  %10 = getelementptr i8, ptr %1, i64 %2
  %11 = getelementptr i8, ptr %10, i64 -1
  %12 = load i8, ptr %11, align 1, !tbaa !43
  %13 = icmp eq i8 %12, 0
  br i1 %13, label %14, label %.critedge

14:                                               ; preds = %9
  %15 = tail call ptr @strstr(ptr noundef nonnull dereferenceable(1) %1, ptr noundef nonnull dereferenceable(1) @.str) #18
  %.not65 = icmp eq ptr %15, null
  br i1 %.not65, label %.critedge, label %17

.critedge:                                        ; preds = %9, %8, %14
  %16 = tail call fastcc i32 @mbedtls_x509_crt_parse_der_internal(ptr noundef nonnull %0, ptr noundef nonnull %1, i64 noundef %2, i32 noundef 1, ptr noundef null, ptr noundef null)
  br label %39

17:                                               ; preds = %14
  call void @llvm.lifetime.start.p0(i64 24, ptr nonnull %4) #17
  %.not119 = icmp eq i64 %2, 1
  br i1 %.not119, label %.thread, label %.lr.ph

.thread:                                          ; preds = %17
  call void @llvm.lifetime.end.p0(i64 24, ptr nonnull %4) #17
  br label %38

.lr.ph:                                           ; preds = %17
  %18 = getelementptr inbounds nuw i8, ptr %4, i64 8
  br label %19

19:                                               ; preds = %.lr.ph, %33
  %.140116 = phi i32 [ 0, %.lr.ph ], [ %.3, %33 ]
  %.142115 = phi i32 [ 0, %.lr.ph ], [ %.344, %33 ]
  %.147114 = phi i32 [ 0, %.lr.ph ], [ %.349, %33 ]
  %.051113 = phi i64 [ %2, %.lr.ph ], [ %.152, %33 ]
  %.053112 = phi ptr [ %1, %.lr.ph ], [ %.154, %33 ]
  call void @llvm.lifetime.start.p0(i64 8, ptr nonnull %5) #17
  call void @mbedtls_pem_init(ptr noundef nonnull %4) #17
  %20 = call i32 @mbedtls_pem_read_buffer(ptr noundef nonnull %4, ptr noundef nonnull @.str, ptr noundef nonnull @.str.1, ptr noundef %.053112, ptr noundef null, i64 noundef 0, ptr noundef nonnull %5) #17
  switch i32 %20, label %26 [
    i32 0, label %21
    i32 -5248, label %36
    i32 -4224, label %35
  ]

21:                                               ; preds = %19
  %22 = load i64, ptr %5, align 8, !tbaa !25
  %23 = load ptr, ptr %4, align 8, !tbaa !44
  %24 = load i64, ptr %18, align 8, !tbaa !46
  %25 = call fastcc i32 @mbedtls_x509_crt_parse_der_internal(ptr noundef %0, ptr noundef %23, i64 noundef %24, i32 noundef 1, ptr noundef null, ptr noundef null)
  call void @mbedtls_pem_free(ptr noundef nonnull %4) #17
  switch i32 %25, label %30 [
    i32 0, label %33
    i32 -10368, label %36
  ]

26:                                               ; preds = %19
  call void @mbedtls_pem_free(ptr noundef nonnull %4) #17
  %27 = load i64, ptr %5, align 8, !tbaa !25
  %28 = icmp eq i32 %.142115, 0
  %spec.select70 = select i1 %28, i32 %20, i32 %.142115
  %29 = add nsw i32 %.140116, 1
  br label %33, !llvm.loop !47

30:                                               ; preds = %21
  %31 = icmp eq i32 %.142115, 0
  %spec.select71 = select i1 %31, i32 %25, i32 %.142115
  %32 = add nsw i32 %.140116, 1
  br label %33, !llvm.loop !47

33:                                               ; preds = %21, %30, %26
  %.pn = phi i64 [ %22, %30 ], [ %27, %26 ], [ %22, %21 ]
  %.349 = phi i32 [ %.147114, %30 ], [ %.147114, %26 ], [ 1, %21 ]
  %.344 = phi i32 [ %spec.select71, %30 ], [ %spec.select70, %26 ], [ %.142115, %21 ]
  %.3 = phi i32 [ %32, %30 ], [ %29, %26 ], [ %.140116, %21 ]
  %.152 = sub i64 %.051113, %.pn
  %.154 = getelementptr inbounds nuw i8, ptr %.053112, i64 %.pn
  call void @llvm.lifetime.end.p0(i64 8, ptr nonnull %5) #17
  %34 = icmp ugt i64 %.152, 1
  br i1 %34, label %19, label %.loopexit

35:                                               ; preds = %19
  call void @llvm.lifetime.end.p0(i64 8, ptr nonnull %5) #17
  br label %.loopexit

36:                                               ; preds = %19, %21
  %.358.ph = phi i32 [ %25, %21 ], [ %20, %19 ]
  call void @llvm.lifetime.end.p0(i64 8, ptr nonnull %5) #17
  call void @llvm.lifetime.end.p0(i64 24, ptr nonnull %4) #17
  br label %39

.loopexit:                                        ; preds = %33, %35
  %.147111 = phi i32 [ %.147114, %35 ], [ %.349, %33 ]
  %.142108 = phi i32 [ %.142115, %35 ], [ %.344, %33 ]
  %.140105 = phi i32 [ %.140116, %35 ], [ %.3, %33 ]
  call void @llvm.lifetime.end.p0(i64 24, ptr nonnull %4) #17
  %.not68 = icmp eq i32 %.147111, 0
  br i1 %.not68, label %37, label %39

37:                                               ; preds = %.loopexit
  %.142108.fr = freeze i32 %.142108
  %.not69 = icmp eq i32 %.142108.fr, 0
  br i1 %.not69, label %38, label %39

38:                                               ; preds = %.thread, %37
  br label %39

39:                                               ; preds = %38, %37, %36, %.loopexit, %3, %.critedge
  %.055 = phi i32 [ %16, %.critedge ], [ %.358.ph, %36 ], [ -10240, %3 ], [ %.140105, %.loopexit ], [ -10112, %38 ], [ %.142108.fr, %37 ]
  ret i32 %.055
}